; Function Attrs: nofree norecurse nosync nounwind memory(argmem: readwrite) uwtable
define void @c_strcpy(ptr noundef writeonly captures(none) %0, ptr noundef readonly captures(none) %1) local_unnamed_addr #0 {
  br label %3

3:                                                ; preds = %3, %2
  %indvars.iv = phi i64 [ %indvars.iv.next, %3 ], [ 0, %2 ]
  %4 = getelementptr inbounds nuw i8, ptr %1, i64 %indvars.iv
  %5 = load i8, ptr %4, align 1, !tbaa !3
  %6 = getelementptr inbounds nuw i8, ptr %0, i64 %indvars.iv
  store i8 %5, ptr %6, align 1, !tbaa !3
  %7 = icmp eq i8 %5, 0
  %indvars.iv.next = add nuw nsw i64 %indvars.iv, 1
  br i1 %7, label %8, label %3

8:                                                ; preds = %3
  ret void
}